target datalayout = "e-m:e-p270:32:32-p271:32:32-p272:64:64-i64:64-i128:128-f80:128-n8:16:32:64-S128"
target triple = "x86_64-pc-linux-gnu"

; Function Attrs: nounwind uwtable
define internal void @encode_mcu_AC_first_prepare(ptr noundef %0, ptr noundef %1, i32 noundef %2, i32 noundef %3, ptr noundef %4, ptr noundef %5) #0 {
  %7 = alloca ptr, align 8
  %8 = alloca ptr, align 8
  %9 = alloca i32, align 4
  %10 = alloca i32, align 4
  %11 = alloca ptr, align 8
  %12 = alloca ptr, align 8
  %13 = alloca i32, align 4
  %14 = alloca i32, align 4
  %15 = alloca i32, align 4
  %16 = alloca i64, align 8
  %17 = alloca i32, align 4
  store ptr %0, ptr %7, align 8, !tbaa !79
  store ptr %1, ptr %8, align 8, !tbaa !87
  store i32 %2, ptr %9, align 4, !tbaa !35
  store i32 %3, ptr %10, align 4, !tbaa !35
  store ptr %4, ptr %11, align 8, !tbaa !79
  store ptr %5, ptr %12, align 8, !tbaa !36
  call void @llvm.lifetime.start.p0(i64 4, ptr %13) #6
  call void @llvm.lifetime.start.p0(i64 4, ptr %14) #6
  call void @llvm.lifetime.start.p0(i64 4, ptr %15) #6
  call void @llvm.lifetime.start.p0(i64 8, ptr %16) #6
  store i64 0, ptr %16, align 8, !tbaa !84
  call void @llvm.lifetime.start.p0(i64 4, ptr %17) #6
  %18 = load i32, ptr %9, align 4, !tbaa !35
  store i32 %18, ptr %17, align 4, !tbaa !35
  store i32 0, ptr %13, align 4, !tbaa !35
  br label %19

19:                                               ; preds = %74, %6
  %20 = load i32, ptr %13, align 4, !tbaa !35
  %21 = load i32, ptr %17, align 4, !tbaa !35
  %22 = icmp slt i32 %20, %21
  br i1 %22, label %23, label %77

23:                                               ; preds = %19
  %24 = load ptr, ptr %7, align 8, !tbaa !79
  %25 = load ptr, ptr %8, align 8, !tbaa !87
  %26 = load i32, ptr %13, align 4, !tbaa !35
  %27 = sext i32 %26 to i64
  %28 = getelementptr inbounds i32, ptr %25, i64 %27
  %29 = load i32, ptr %28, align 4, !tbaa !35
  %30 = sext i32 %29 to i64
  %31 = getelementptr inbounds i16, ptr %24, i64 %30
  %32 = load i16, ptr %31, align 2, !tbaa !81
  %33 = sext i16 %32 to i32
  store i32 %33, ptr %14, align 4, !tbaa !35
  %34 = load i32, ptr %14, align 4, !tbaa !35
  %35 = icmp eq i32 %34, 0
  br i1 %35, label %36, label %37

36:                                               ; preds = %23
  br label %74

37:                                               ; preds = %23
  %38 = load i32, ptr %14, align 4, !tbaa !35
  %39 = ashr i32 %38, 31
  store i32 %39, ptr %15, align 4, !tbaa !35
  %40 = load i32, ptr %15, align 4, !tbaa !35
  %41 = load i32, ptr %14, align 4, !tbaa !35
  %42 = xor i32 %41, %40
  store i32 %42, ptr %14, align 4, !tbaa !35
  %43 = load i32, ptr %15, align 4, !tbaa !35
  %44 = load i32, ptr %14, align 4, !tbaa !35
  %45 = sub nsw i32 %44, %43
  store i32 %45, ptr %14, align 4, !tbaa !35
  %46 = load i32, ptr %10, align 4, !tbaa !35
  %47 = load i32, ptr %14, align 4, !tbaa !35
  %48 = ashr i32 %47, %46
  store i32 %48, ptr %14, align 4, !tbaa !35
  %49 = load i32, ptr %14, align 4, !tbaa !35
  %50 = icmp eq i32 %49, 0
  br i1 %50, label %51, label %52

51:                                               ; preds = %37
  br label %74

52:                                               ; preds = %37
  %53 = load i32, ptr %14, align 4, !tbaa !35
  %54 = load i32, ptr %15, align 4, !tbaa !35
  %55 = xor i32 %54, %53
  store i32 %55, ptr %15, align 4, !tbaa !35
  %56 = load i32, ptr %14, align 4, !tbaa !35
  %57 = trunc i32 %56 to i16
  %58 = load ptr, ptr %11, align 8, !tbaa !79
  %59 = load i32, ptr %13, align 4, !tbaa !35
  %60 = sext i32 %59 to i64
  %61 = getelementptr inbounds i16, ptr %58, i64 %60
  store i16 %57, ptr %61, align 2, !tbaa !81
  %62 = load i32, ptr %15, align 4, !tbaa !35
  %63 = trunc i32 %62 to i16
  %64 = load ptr, ptr %11, align 8, !tbaa !79
  %65 = load i32, ptr %13, align 4, !tbaa !35
  %66 = add nsw i32 %65, 64
  %67 = sext i32 %66 to i64
  %68 = getelementptr inbounds i16, ptr %64, i64 %67
  store i16 %63, ptr %68, align 2, !tbaa !81
  %69 = load i32, ptr %13, align 4, !tbaa !35
  %70 = zext i32 %69 to i64
  %71 = shl i64 1, %70
  %72 = load i64, ptr %16, align 8, !tbaa !84
  %73 = or i64 %72, %71
  store i64 %73, ptr %16, align 8, !tbaa !84
  br label %74

74:                                               ; preds = %52, %51, %36
  %75 = load i32, ptr %13, align 4, !tbaa !35
  %76 = add nsw i32 %75, 1
  store i32 %76, ptr %13, align 4, !tbaa !35
  br label %19, !llvm.loop !89

77:                                               ; preds = %19
  %78 = load i64, ptr %16, align 8, !tbaa !84
  %79 = load ptr, ptr %12, align 8, !tbaa !36
  %80 = getelementptr inbounds i64, ptr %79, i64 0
  store i64 %78, ptr %80, align 8, !tbaa !84
  call void @llvm.lifetime.end.p0(i64 4, ptr %17) #6
  call void @llvm.lifetime.end.p0(i64 8, ptr %16) #6
  call void @llvm.lifetime.end.p0(i64 4, ptr %15) #6
  call void @llvm.lifetime.end.p0(i64 4, ptr %14) #6
  call void @llvm.lifetime.end.p0(i64 4, ptr %13) #6
  ret void
}