; Function Attrs: nofree norecurse nosync nounwind memory(argmem: readwrite) uwtable
define internal void @encode_mcu_AC_first_prepare(ptr noundef readonly captures(none) %0, ptr noundef readonly captures(none) %1, i32 noundef %2, i32 noundef %3, ptr noundef writeonly captures(none) %4, ptr noundef writeonly captures(none) %5) #3 {
  %7 = icmp sgt i32 %2, 0
  br i1 %7, label %.lr.ph.preheader, label %._crit_edge

.lr.ph.preheader:                                 ; preds = %6
  %wide.trip.count = zext nneg i32 %2 to i64
  br label %.lr.ph

.lr.ph:                                           ; preds = %.lr.ph.preheader, %29
  %indvars.iv = phi i64 [ 0, %.lr.ph.preheader ], [ %indvars.iv.next, %29 ]
  %.02730 = phi i64 [ 0, %.lr.ph.preheader ], [ %.1, %29 ]
  %8 = getelementptr inbounds nuw i32, ptr %1, i64 %indvars.iv
  %9 = load i32, ptr %8, align 4, !tbaa !44
  %10 = sext i32 %9 to i64
  %11 = getelementptr inbounds i16, ptr %0, i64 %10
  %12 = load i16, ptr %11, align 2, !tbaa !77
  %13 = icmp eq i16 %12, 0
  br i1 %13, label %29, label %14

14:                                               ; preds = %.lr.ph
  %15 = sext i16 %12 to i32
  %16 = ashr i32 %15, 31
  %17 = xor i32 %16, %15
  %18 = sub nsw i32 %17, %16
  %19 = ashr i32 %18, %3
  %20 = icmp eq i32 %19, 0
  br i1 %20, label %29, label %21

21:                                               ; preds = %14
  %22 = xor i32 %19, %16
  %23 = trunc i32 %19 to i16
  %24 = getelementptr inbounds nuw i16, ptr %4, i64 %indvars.iv
  store i16 %23, ptr %24, align 2, !tbaa !77
  %25 = trunc i32 %22 to i16
  %26 = getelementptr inbounds nuw i8, ptr %24, i64 128
  store i16 %25, ptr %26, align 2, !tbaa !77
  %27 = shl nuw i64 1, %indvars.iv
  %28 = or i64 %27, %.02730
  br label %29

29:                                               ; preds = %14, %.lr.ph, %21
  %.1 = phi i64 [ %.02730, %.lr.ph ], [ %.02730, %14 ], [ %28, %21 ]
  %indvars.iv.next = add nuw nsw i64 %indvars.iv, 1
  %exitcond.not = icmp eq i64 %indvars.iv.next, %wide.trip.count
  br i1 %exitcond.not, label %._crit_edge, label %.lr.ph, !llvm.loop !86

._crit_edge:                                      ; preds = %29, %6
  %.027.lcssa = phi i64 [ 0, %6 ], [ %.1, %29 ]
  store i64 %.027.lcssa, ptr %5, align 8, !tbaa !78
  ret void
}